target datalayout = "e-m:e-p270:32:32-p271:32:32-p272:64:64-i64:64-i128:128-f80:128-n8:16:32:64-S128"
target triple = "x86_64-pc-linux-gnu"

; Function Attrs: nounwind sspstrong uwtable
define hidden void @FLAC__window_rectangle(ptr noundef %0, i32 noundef %1) #0 {
  %3 = alloca ptr, align 8
  %4 = alloca i32, align 4
  %5 = alloca i32, align 4
  store ptr %0, ptr %3, align 8, !tbaa !3
  store i32 %1, ptr %4, align 4, !tbaa !8
  call void @llvm.lifetime.start.p0(i64 4, ptr %5) #4
  store i32 0, ptr %5, align 4, !tbaa !8
  br label %6

6:                                                ; preds = %15, %2
  %7 = load i32, ptr %5, align 4, !tbaa !8
  %8 = load i32, ptr %4, align 4, !tbaa !8
  %9 = icmp slt i32 %7, %8
  br i1 %9, label %10, label %18

10:                                               ; preds = %6
  %11 = load ptr, ptr %3, align 8, !tbaa !3
  %12 = load i32, ptr %5, align 4, !tbaa !8
  %13 = sext i32 %12 to i64
  %14 = getelementptr inbounds float, ptr %11, i64 %13
  store float 1.000000e+00, ptr %14, align 4, !tbaa !10
  br label %15

15:                                               ; preds = %10
  %16 = load i32, ptr %5, align 4, !tbaa !8
  %17 = add nsw i32 %16, 1
  store i32 %17, ptr %5, align 4, !tbaa !8
  br label %6, !llvm.loop !29

18:                                               ; preds = %6
  call void @llvm.lifetime.end.p0(i64 4, ptr %5) #4
  ret void
}